target datalayout = "e-m:e-p270:32:32-p271:32:32-p272:64:64-i64:64-i128:128-f80:128-n8:16:32:64-S128"
target triple = "x86_64-pc-linux-gnu"

%"struct.gmx::nbnxn_atomdata_t" = type { %"struct.gmx::nbnxn_atomdata_t::Params", i32, i32, i32, i32, i8, %"class.std::vector.9", i32, i32, %"class.std::vector", %"struct.gmx::nbnxn_atomdata_t::SimdMasks", %"class.std::vector.19", i8, %"class.std::vector.21" }
%"struct.gmx::nbnxn_atomdata_t::Params" = type { i32, %"class.std::vector", i32, %"class.std::vector", %"class.std::vector.0", %"class.std::vector.3", %"class.std::vector", %"class.std::vector", i32, %"class.std::unique_ptr" }
%"class.std::vector.0" = type { %"struct.std::_Vector_base.1" }
%"struct.std::_Vector_base.1" = type { %"struct.std::_Vector_base<float, gmx::Allocator<float, gmx::AlignedAllocationPolicy>>::_Vector_impl" }
%"struct.std::_Vector_base<float, gmx::Allocator<float, gmx::AlignedAllocationPolicy>>::_Vector_impl" = type { %"struct.std::_Vector_base<float, gmx::Allocator<float, gmx::AlignedAllocationPolicy>>::_Vector_impl_data" }
%"struct.std::_Vector_base<float, gmx::Allocator<float, gmx::AlignedAllocationPolicy>>::_Vector_impl_data" = type { ptr, ptr, ptr }
%"class.std::vector.3" = type { %"struct.std::_Vector_base.4" }
%"struct.std::_Vector_base.4" = type { %"struct.std::_Vector_base<int, gmx::Allocator<int, gmx::HostAllocationPolicy>>::_Vector_impl" }
%"struct.std::_Vector_base<int, gmx::Allocator<int, gmx::HostAllocationPolicy>>::_Vector_impl" = type { %"class.gmx::Allocator.base.6", %"struct.std::_Vector_base<int, gmx::Allocator<int, gmx::HostAllocationPolicy>>::_Vector_impl_data" }
%"class.gmx::Allocator.base.6" = type { %"class.gmx::HostAllocationPolicy.base" }
%"class.gmx::HostAllocationPolicy.base" = type <{ i32, i8 }>
%"struct.std::_Vector_base<int, gmx::Allocator<int, gmx::HostAllocationPolicy>>::_Vector_impl_data" = type { ptr, ptr, ptr }
%"class.std::unique_ptr" = type { %"struct.std::__uniq_ptr_data" }
%"struct.std::__uniq_ptr_data" = type { %"class.std::__uniq_ptr_impl" }
%"class.std::__uniq_ptr_impl" = type { %"class.std::tuple" }
%"class.std::tuple" = type { %"struct.std::_Tuple_impl" }
%"struct.std::_Tuple_impl" = type { %"struct.std::_Head_base.8" }
%"struct.std::_Head_base.8" = type { ptr }
%"class.std::vector.9" = type { %"struct.std::_Vector_base.10" }
%"struct.std::_Vector_base.10" = type { %"struct.std::_Vector_base<gmx::BasicVector<float>, gmx::Allocator<gmx::BasicVector<float>, gmx::HostAllocationPolicy>>::_Vector_impl" }
%"struct.std::_Vector_base<gmx::BasicVector<float>, gmx::Allocator<gmx::BasicVector<float>, gmx::HostAllocationPolicy>>::_Vector_impl" = type { %"class.gmx::Allocator.base.12", %"struct.std::_Vector_base<gmx::BasicVector<float>, gmx::Allocator<gmx::BasicVector<float>, gmx::HostAllocationPolicy>>::_Vector_impl_data" }
%"class.gmx::Allocator.base.12" = type { %"class.gmx::HostAllocationPolicy.base" }
%"struct.std::_Vector_base<gmx::BasicVector<float>, gmx::Allocator<gmx::BasicVector<float>, gmx::HostAllocationPolicy>>::_Vector_impl_data" = type { ptr, ptr, ptr }
%"class.std::vector" = type { %"struct.std::_Vector_base" }
%"struct.std::_Vector_base" = type { %"struct.std::_Vector_base<float, gmx::Allocator<float, gmx::HostAllocationPolicy>>::_Vector_impl" }
%"struct.std::_Vector_base<float, gmx::Allocator<float, gmx::HostAllocationPolicy>>::_Vector_impl" = type { %"class.gmx::Allocator.base", %"struct.std::_Vector_base<float, gmx::Allocator<float, gmx::HostAllocationPolicy>>::_Vector_impl_data" }
%"class.gmx::Allocator.base" = type { %"class.gmx::HostAllocationPolicy.base" }
%"struct.std::_Vector_base<float, gmx::Allocator<float, gmx::HostAllocationPolicy>>::_Vector_impl_data" = type { ptr, ptr, ptr }
%"struct.gmx::nbnxn_atomdata_t::SimdMasks" = type { %"class.std::vector.0", %"class.std::vector.0", %"class.std::vector.13", %"class.std::vector.16" }
%"class.std::vector.13" = type { %"struct.std::_Vector_base.14" }
%"struct.std::_Vector_base.14" = type { %"struct.std::_Vector_base<unsigned int, gmx::Allocator<unsigned int, gmx::AlignedAllocationPolicy>>::_Vector_impl" }
%"struct.std::_Vector_base<unsigned int, gmx::Allocator<unsigned int, gmx::AlignedAllocationPolicy>>::_Vector_impl" = type { %"struct.std::_Vector_base<unsigned int, gmx::Allocator<unsigned int, gmx::AlignedAllocationPolicy>>::_Vector_impl_data" }
%"struct.std::_Vector_base<unsigned int, gmx::Allocator<unsigned int, gmx::AlignedAllocationPolicy>>::_Vector_impl_data" = type { ptr, ptr, ptr }
%"class.std::vector.16" = type { %"struct.std::_Vector_base.17" }
%"struct.std::_Vector_base.17" = type { %"struct.std::_Vector_base<unsigned long, gmx::Allocator<unsigned long, gmx::AlignedAllocationPolicy>>::_Vector_impl" }
%"struct.std::_Vector_base<unsigned long, gmx::Allocator<unsigned long, gmx::AlignedAllocationPolicy>>::_Vector_impl" = type { %"struct.std::_Vector_base<unsigned long, gmx::Allocator<unsigned long, gmx::AlignedAllocationPolicy>>::_Vector_impl_data" }
%"struct.std::_Vector_base<unsigned long, gmx::Allocator<unsigned long, gmx::AlignedAllocationPolicy>>::_Vector_impl_data" = type { ptr, ptr, ptr }
%"class.std::vector.19" = type { %"struct.std::_Vector_base.20" }
%"struct.std::_Vector_base.20" = type { %"struct.std::_Vector_base<gmx::nbnxn_atomdata_output_t, std::allocator<gmx::nbnxn_atomdata_output_t>>::_Vector_impl" }
%"struct.std::_Vector_base<gmx::nbnxn_atomdata_output_t, std::allocator<gmx::nbnxn_atomdata_output_t>>::_Vector_impl" = type { %"struct.std::_Vector_base<gmx::nbnxn_atomdata_output_t, std::allocator<gmx::nbnxn_atomdata_output_t>>::_Vector_impl_data" }
%"struct.std::_Vector_base<gmx::nbnxn_atomdata_output_t, std::allocator<gmx::nbnxn_atomdata_output_t>>::_Vector_impl_data" = type { ptr, ptr, ptr }
%"class.std::vector.21" = type { %"struct.std::_Vector_base.22" }
%"struct.std::_Vector_base.22" = type { %"struct.std::_Vector_base<std::array<unsigned long, 2>, std::allocator<std::array<unsigned long, 2>>>::_Vector_impl" }
%"struct.std::_Vector_base<std::array<unsigned long, 2>, std::allocator<std::array<unsigned long, 2>>>::_Vector_impl" = type { %"struct.std::_Vector_base<std::array<unsigned long, 2>, std::allocator<std::array<unsigned long, 2>>>::_Vector_impl_data" }
%"struct.std::_Vector_base<std::array<unsigned long, 2>, std::allocator<std::array<unsigned long, 2>>>::_Vector_impl_data" = type { ptr, ptr, ptr }

; Function Attrs: inlinehint mustprogress nounwind uwtable
define linkonce_odr void @_ZSt8_DestroyIfEvPT_(ptr noundef %0) #4 comdat {
  %2 = alloca ptr, align 8
  store ptr %0, ptr %2, align 8, !tbaa !81
  ret void
}

; Function Attrs: mustprogress nounwind uwtable
define linkonce_odr void @_ZNSt16allocator_traitsIN3gmx9AllocatorIfNS0_20HostAllocationPolicyEEEE10_S_destroyIS3_fEEvRT_PT0_z(ptr noundef nonnull align 4 dereferenceable(5) %0, ptr noundef %1, ...) #1 comdat align 2 personality ptr @__gxx_personality_v0 {
  %3 = alloca ptr, align 8
  %4 = alloca ptr, align 8
  store ptr %0, ptr %3, align 8, !tbaa !82
  store ptr %1, ptr %4, align 8, !tbaa !81
  %5 = load ptr, ptr %4, align 8, !tbaa !81
  invoke void @_ZSt8_DestroyIfEvPT_(ptr noundef %5)
          to label %6 unwind label %7

6:                                                ; preds = %2
  ret void

7:                                                ; preds = %2
  %8 = landingpad { ptr, i32 }
          catch ptr null
  %9 = extractvalue { ptr, i32 } %8, 0
  call void @__clang_call_terminate(ptr %9) #27
  unreachable
}

; Function Attrs: mustprogress nounwind uwtable
define linkonce_odr void @_ZNSt16allocator_traitsIN3gmx9AllocatorIfNS0_20HostAllocationPolicyEEEE7destroyIfEEvRS3_PT_(ptr noundef nonnull align 4 dereferenceable(5) %0, ptr noundef %1) #1 comdat align 2 {
  %3 = alloca ptr, align 8
  %4 = alloca ptr, align 8
  store ptr %0, ptr %3, align 8, !tbaa !82
  store ptr %1, ptr %4, align 8, !tbaa !81
  %5 = load ptr, ptr %3, align 8, !tbaa !82
  %6 = load ptr, ptr %4, align 8, !tbaa !81
  call void (ptr, ptr, ...) @_ZNSt16allocator_traitsIN3gmx9AllocatorIfNS0_20HostAllocationPolicyEEEE10_S_destroyIS3_fEEvRT_PT0_z(ptr noundef nonnull align 4 dereferenceable(5) %5, ptr noundef %6, i32 noundef 0) #18
  ret void
}

; Function Attrs: noinline noreturn nounwind uwtable
define linkonce_odr hidden void @__clang_call_terminate(ptr noundef %0) #3 comdat {
  %2 = call ptr @__cxa_begin_catch(ptr %0) #18
  call void @_ZSt9terminatev() #27
  unreachable
}

; Function Attrs: mustprogress nounwind uwtable
define linkonce_odr void @_ZSt8_DestroyIPfN3gmx9AllocatorIfNS1_20HostAllocationPolicyEEEEvT_S5_RT0_(ptr noundef %0, ptr noundef %1, ptr noundef nonnull align 4 dereferenceable(5) %2) #1 comdat {
  %4 = alloca ptr, align 8
  %5 = alloca ptr, align 8
  %6 = alloca ptr, align 8
  store ptr %0, ptr %4, align 8, !tbaa !81
  store ptr %1, ptr %5, align 8, !tbaa !81
  store ptr %2, ptr %6, align 8, !tbaa !82
  br label %7

7:                                                ; preds = %14, %3
  %8 = load ptr, ptr %4, align 8, !tbaa !81
  %9 = load ptr, ptr %5, align 8, !tbaa !81
  %10 = icmp ne ptr %8, %9
  br i1 %10, label %11, label %17

11:                                               ; preds = %7
  %12 = load ptr, ptr %6, align 8, !tbaa !82
  %13 = load ptr, ptr %4, align 8, !tbaa !81
  call void @_ZNSt16allocator_traitsIN3gmx9AllocatorIfNS0_20HostAllocationPolicyEEEE7destroyIfEEvRS3_PT_(ptr noundef nonnull align 4 dereferenceable(5) %12, ptr noundef %13) #18
  br label %14

14:                                               ; preds = %11
  %15 = load ptr, ptr %4, align 8, !tbaa !81
  %16 = getelementptr inbounds nuw float, ptr %15, i32 1
  store ptr %16, ptr %4, align 8, !tbaa !81
  br label %7, !llvm.loop !99

17:                                               ; preds = %7
  ret void
}

; Function Attrs: mustprogress nounwind uwtable
define linkonce_odr noundef nonnull align 4 dereferenceable(5) ptr @_ZNSt12_Vector_baseIfN3gmx9AllocatorIfNS0_20HostAllocationPolicyEEEE19_M_get_Tp_allocatorEv(ptr noundef nonnull align 8 dereferenceable(32) %0) #1 comdat align 2 {
  %2 = alloca ptr, align 8
  store ptr %0, ptr %2, align 8, !tbaa !86
  %3 = load ptr, ptr %2, align 8
  %4 = getelementptr inbounds nuw %"struct.std::_Vector_base", ptr %3, i32 0, i32 0
  ret ptr %4
}

; Function Attrs: mustprogress nounwind uwtable
define linkonce_odr void @_ZNSt6vectorIfN3gmx9AllocatorIfNS0_20HostAllocationPolicyEEEE15_M_erase_at_endEPf(ptr noundef nonnull align 8 dereferenceable(32) %0, ptr noundef %1) #1 comdat align 2 personality ptr @__gxx_personality_v0 {
  %3 = alloca ptr, align 8
  %4 = alloca ptr, align 8
  %5 = alloca i64, align 8
  store ptr %0, ptr %3, align 8, !tbaa !74
  store ptr %1, ptr %4, align 8, !tbaa !81
  %6 = load ptr, ptr %3, align 8
  call void @llvm.lifetime.start.p0(i64 8, ptr %5) #18
  %7 = getelementptr inbounds nuw %"struct.std::_Vector_base", ptr %6, i32 0, i32 0
  %8 = getelementptr inbounds i8, ptr %7, i64 8
  %9 = getelementptr inbounds nuw %"struct.std::_Vector_base<float, gmx::Allocator<float, gmx::HostAllocationPolicy>>::_Vector_impl_data", ptr %8, i32 0, i32 1
  %10 = load ptr, ptr %9, align 8, !tbaa !79
  %11 = load ptr, ptr %4, align 8, !tbaa !81
  %12 = ptrtoint ptr %10 to i64
  %13 = ptrtoint ptr %11 to i64
  %14 = sub i64 %12, %13
  %15 = sdiv exact i64 %14, 4
  store i64 %15, ptr %5, align 8, !tbaa !76
  %16 = load i64, ptr %5, align 8, !tbaa !76
  %17 = icmp ne i64 %16, 0
  br i1 %17, label %18, label %30

18:                                               ; preds = %2
  %19 = load ptr, ptr %4, align 8, !tbaa !81
  %20 = getelementptr inbounds nuw %"struct.std::_Vector_base", ptr %6, i32 0, i32 0
  %21 = getelementptr inbounds i8, ptr %20, i64 8
  %22 = getelementptr inbounds nuw %"struct.std::_Vector_base<float, gmx::Allocator<float, gmx::HostAllocationPolicy>>::_Vector_impl_data", ptr %21, i32 0, i32 1
  %23 = load ptr, ptr %22, align 8, !tbaa !79
  %24 = call noundef nonnull align 4 dereferenceable(5) ptr @_ZNSt12_Vector_baseIfN3gmx9AllocatorIfNS0_20HostAllocationPolicyEEEE19_M_get_Tp_allocatorEv(ptr noundef nonnull align 8 dereferenceable(32) %6) #18
  invoke void @_ZSt8_DestroyIPfN3gmx9AllocatorIfNS1_20HostAllocationPolicyEEEEvT_S5_RT0_(ptr noundef %19, ptr noundef %23, ptr noundef nonnull align 4 dereferenceable(5) %24)
          to label %25 unwind label %31

25:                                               ; preds = %18
  %26 = load ptr, ptr %4, align 8, !tbaa !81
  %27 = getelementptr inbounds nuw %"struct.std::_Vector_base", ptr %6, i32 0, i32 0
  %28 = getelementptr inbounds i8, ptr %27, i64 8
  %29 = getelementptr inbounds nuw %"struct.std::_Vector_base<float, gmx::Allocator<float, gmx::HostAllocationPolicy>>::_Vector_impl_data", ptr %28, i32 0, i32 1
  store ptr %26, ptr %29, align 8, !tbaa !79
  br label %30

30:                                               ; preds = %25, %2
  call void @llvm.lifetime.end.p0(i64 8, ptr %5) #18
  ret void

31:                                               ; preds = %18
  %32 = landingpad { ptr, i32 }
          catch ptr null
  %33 = extractvalue { ptr, i32 } %32, 0
  call void @__clang_call_terminate(ptr %33) #27
  unreachable
}

; Function Attrs: mustprogress nounwind uwtable
define linkonce_odr noundef i64 @_ZNKSt6vectorIfN3gmx9AllocatorIfNS0_20HostAllocationPolicyEEEE4sizeEv(ptr noundef nonnull align 8 dereferenceable(32) %0) #1 comdat align 2 {
  %2 = alloca ptr, align 8
  store ptr %0, ptr %2, align 8, !tbaa !74
  %3 = load ptr, ptr %2, align 8
  %4 = getelementptr inbounds nuw %"struct.std::_Vector_base", ptr %3, i32 0, i32 0
  %5 = getelementptr inbounds i8, ptr %4, i64 8
  %6 = getelementptr inbounds nuw %"struct.std::_Vector_base<float, gmx::Allocator<float, gmx::HostAllocationPolicy>>::_Vector_impl_data", ptr %5, i32 0, i32 1
  %7 = load ptr, ptr %6, align 8, !tbaa !79
  %8 = getelementptr inbounds nuw %"struct.std::_Vector_base", ptr %3, i32 0, i32 0
  %9 = getelementptr inbounds i8, ptr %8, i64 8
  %10 = getelementptr inbounds nuw %"struct.std::_Vector_base<float, gmx::Allocator<float, gmx::HostAllocationPolicy>>::_Vector_impl_data", ptr %9, i32 0, i32 0
  %11 = load ptr, ptr %10, align 8, !tbaa !78
  %12 = ptrtoint ptr %7 to i64
  %13 = ptrtoint ptr %11 to i64
  %14 = sub i64 %12, %13
  %15 = sdiv exact i64 %14, 4
  ret i64 %15
}

; Function Attrs: mustprogress uwtable
define linkonce_odr void @_ZNSt6vectorIfN3gmx9AllocatorIfNS0_20HostAllocationPolicyEEEE6resizeEm(ptr noundef nonnull align 8 dereferenceable(32) %0, i64 noundef %1) #0 comdat align 2 {
  %3 = alloca ptr, align 8
  %4 = alloca i64, align 8
  store ptr %0, ptr %3, align 8, !tbaa !74
  store i64 %1, ptr %4, align 8, !tbaa !76
  %5 = load ptr, ptr %3, align 8
  %6 = load i64, ptr %4, align 8, !tbaa !76
  %7 = call noundef i64 @_ZNKSt6vectorIfN3gmx9AllocatorIfNS0_20HostAllocationPolicyEEEE4sizeEv(ptr noundef nonnull align 8 dereferenceable(32) %5) #18
  %8 = icmp ugt i64 %6, %7
  br i1 %8, label %9, label %13

9:                                                ; preds = %2
  %10 = load i64, ptr %4, align 8, !tbaa !76
  %11 = call noundef i64 @_ZNKSt6vectorIfN3gmx9AllocatorIfNS0_20HostAllocationPolicyEEEE4sizeEv(ptr noundef nonnull align 8 dereferenceable(32) %5) #18
  %12 = sub i64 %10, %11
  call void @_ZNSt6vectorIfN3gmx9AllocatorIfNS0_20HostAllocationPolicyEEEE17_M_default_appendEm(ptr noundef nonnull align 8 dereferenceable(32) %5, i64 noundef %12)
  br label %25

13:                                               ; preds = %2
  %14 = load i64, ptr %4, align 8, !tbaa !76
  %15 = call noundef i64 @_ZNKSt6vectorIfN3gmx9AllocatorIfNS0_20HostAllocationPolicyEEEE4sizeEv(ptr noundef nonnull align 8 dereferenceable(32) %5) #18
  %16 = icmp ult i64 %14, %15
  br i1 %16, label %17, label %24

17:                                               ; preds = %13
  %18 = getelementptr inbounds nuw %"struct.std::_Vector_base", ptr %5, i32 0, i32 0
  %19 = getelementptr inbounds i8, ptr %18, i64 8
  %20 = getelementptr inbounds nuw %"struct.std::_Vector_base<float, gmx::Allocator<float, gmx::HostAllocationPolicy>>::_Vector_impl_data", ptr %19, i32 0, i32 0
  %21 = load ptr, ptr %20, align 8, !tbaa !78
  %22 = load i64, ptr %4, align 8, !tbaa !76
  %23 = getelementptr inbounds nuw float, ptr %21, i64 %22
  call void @_ZNSt6vectorIfN3gmx9AllocatorIfNS0_20HostAllocationPolicyEEEE15_M_erase_at_endEPf(ptr noundef nonnull align 8 dereferenceable(32) %5, ptr noundef %23) #18
  br label %24

24:                                               ; preds = %17, %13
  br label %25

25:                                               ; preds = %24, %9
  ret void
}

; Function Attrs: mustprogress uwtable
define void @_ZN3gmx16nbnxn_atomdata_t22resizeCoordinateBufferEii(ptr noundef nonnull align 8 dereferenceable(464) %0, i32 noundef %1, i32 noundef %2) #0 align 2 {
  %4 = alloca ptr, align 8
  %5 = alloca i32, align 4
  %6 = alloca i32, align 4
  store ptr %0, ptr %4, align 8, !tbaa !13
  store i32 %1, ptr %5, align 4, !tbaa !15
  store i32 %2, ptr %6, align 4, !tbaa !15
  %7 = load ptr, ptr %4, align 8
  %8 = load i32, ptr %5, align 4, !tbaa !15
  %9 = getelementptr inbounds nuw %"struct.gmx::nbnxn_atomdata_t", ptr %7, i32 0, i32 1
  store i32 %8, ptr %9, align 8, !tbaa !17
  %10 = load i32, ptr %6, align 4, !tbaa !15
  %11 = icmp eq i32 %10, 0
  br i1 %11, label %12, label %15

12:                                               ; preds = %3
  %13 = load i32, ptr %5, align 4, !tbaa !15
  %14 = getelementptr inbounds nuw %"struct.gmx::nbnxn_atomdata_t", ptr %7, i32 0, i32 2
  store i32 %13, ptr %14, align 4, !tbaa !72
  br label %15

15:                                               ; preds = %12, %3
  %16 = getelementptr inbounds nuw %"struct.gmx::nbnxn_atomdata_t", ptr %7, i32 0, i32 9
  %17 = load i32, ptr %5, align 4, !tbaa !15
  %18 = getelementptr inbounds nuw %"struct.gmx::nbnxn_atomdata_t", ptr %7, i32 0, i32 7
  %19 = load i32, ptr %18, align 8, !tbaa !73
  %20 = mul nsw i32 %17, %19
  %21 = sext i32 %20 to i64
  call void @_ZNSt6vectorIfN3gmx9AllocatorIfNS0_20HostAllocationPolicyEEEE6resizeEm(ptr noundef nonnull align 8 dereferenceable(32) %16, i64 noundef %21)
  ret void
}