; Function Attrs: mustprogress uwtable
define void @_ZN3gmx16nbnxn_atomdata_t22resizeCoordinateBufferEii(ptr noundef nonnull align 8 dereferenceable(464) initializes((216, 220)) %0, i32 noundef %1, i32 noundef %2) local_unnamed_addr #1 align 2 personality ptr @__gxx_personality_v0 {
  %4 = getelementptr inbounds nuw i8, ptr %0, i64 216
  store i32 %1, ptr %4, align 8, !tbaa !9
  %5 = icmp eq i32 %2, 0
  br i1 %5, label %6, label %8

6:                                                ; preds = %3
  %7 = getelementptr inbounds nuw i8, ptr %0, i64 220
  store i32 %1, ptr %7, align 4, !tbaa !66
  br label %8

8:                                                ; preds = %6, %3
  %9 = getelementptr inbounds nuw i8, ptr %0, i64 272
  %10 = load i32, ptr %9, align 8, !tbaa !67
  %11 = mul nsw i32 %10, %1
  %12 = sext i32 %11 to i64
  %13 = getelementptr inbounds nuw i8, ptr %0, i64 288
  %14 = getelementptr inbounds nuw i8, ptr %0, i64 296
  %15 = load ptr, ptr %14, align 8, !tbaa !68
  %16 = load ptr, ptr %13, align 8, !tbaa !69
  %17 = ptrtoint ptr %15 to i64
  %18 = ptrtoint ptr %16 to i64
  %19 = sub i64 %17, %18
  %20 = ashr exact i64 %19, 2
  %21 = icmp ult i64 %20, %12
  br i1 %21, label %22, label %25

22:                                               ; preds = %8
  %23 = getelementptr inbounds nuw i8, ptr %0, i64 280
  %24 = sub nuw nsw i64 %12, %20
  tail call void @_ZNSt6vectorIfN3gmx9AllocatorIfNS0_20HostAllocationPolicyEEEE17_M_default_appendEm(ptr noundef nonnull align 8 dereferenceable(32) %23, i64 noundef %24)
  br label %_ZNSt6vectorIfN3gmx9AllocatorIfNS0_20HostAllocationPolicyEEEE6resizeEm.exit

25:                                               ; preds = %8
  %26 = icmp ugt i64 %20, %12
  br i1 %26, label %27, label %_ZNSt6vectorIfN3gmx9AllocatorIfNS0_20HostAllocationPolicyEEEE6resizeEm.exit

27:                                               ; preds = %25
  %28 = getelementptr inbounds nuw float, ptr %16, i64 %12
  %.not.i.i = icmp eq ptr %15, %28
  br i1 %.not.i.i, label %_ZNSt6vectorIfN3gmx9AllocatorIfNS0_20HostAllocationPolicyEEEE6resizeEm.exit, label %29

29:                                               ; preds = %27
  store ptr %28, ptr %14, align 8, !tbaa !68
  br label %_ZNSt6vectorIfN3gmx9AllocatorIfNS0_20HostAllocationPolicyEEEE6resizeEm.exit

_ZNSt6vectorIfN3gmx9AllocatorIfNS0_20HostAllocationPolicyEEEE6resizeEm.exit: ; preds = %22, %25, %27, %29
  ret void
}